; Function Attrs: mustprogress nofree norecurse nosync nounwind sspstrong willreturn memory(argmem: readwrite) uwtable
define internal noundef i32 @read_vcsr(ptr noundef readonly captures(none) %env, i32 %csrno, ptr noundef writeonly captures(none) initializes((0, 8)) %val) #4 {
entry:
  %vxrm = getelementptr inbounds nuw i8, ptr %env, i64 4608
  %0 = load i64, ptr %vxrm, align 16
  %shl = shl i64 %0, 1
  %vxsat = getelementptr inbounds nuw i8, ptr %env, i64 4616
  %1 = load i64, ptr %vxsat, align 8
  %or = or i64 %shl, %1
  store i64 %or, ptr %val, align 8
  ret i32 -1
}